; Function Attrs: mustprogress uwtable
define noundef i32 @casadi_c_push_file(ptr noundef %0) local_unnamed_addr #5 {
  %2 = alloca i32, align 4
  %3 = load ptr, ptr getelementptr inbounds nuw (i8, ptr @_ZL25casadi_c_loaded_functions, i64 8), align 8, !tbaa !9
  %4 = load ptr, ptr @_ZL25casadi_c_loaded_functions, align 8, !tbaa !3
  %5 = ptrtoint ptr %3 to i64
  %6 = ptrtoint ptr %4 to i64
  %7 = sub i64 %5, %6
  %8 = lshr exact i64 %7, 3
  %9 = trunc i64 %8 to i32
  %10 = tail call noundef i32 @_Z27casadi_c_push_file_internalPKc(ptr noundef %0)
  %11 = load ptr, ptr getelementptr inbounds nuw (i8, ptr @_ZL25casadi_c_loaded_functions, i64 8), align 8, !tbaa !9
  %12 = load ptr, ptr @_ZL25casadi_c_loaded_functions, align 8, !tbaa !3
  %13 = ptrtoint ptr %11 to i64
  %14 = ptrtoint ptr %12 to i64
  %15 = sub i64 %13, %14
  %16 = lshr exact i64 %15, 3
  %17 = trunc i64 %16 to i32
  call void @llvm.lifetime.start.p0(i64 4, ptr nonnull %2) #23
  %18 = sub nsw i32 %17, %9
  store i32 %18, ptr %2, align 4, !tbaa !58
  %19 = load ptr, ptr getelementptr inbounds nuw (i8, ptr @_ZL19casadi_c_load_stack, i64 48), align 8, !tbaa !59
  %20 = load ptr, ptr getelementptr inbounds nuw (i8, ptr @_ZL19casadi_c_load_stack, i64 64), align 8, !tbaa !60
  %21 = getelementptr inbounds i8, ptr %20, i64 -4
  %.not.i.i = icmp eq ptr %19, %21
  br i1 %.not.i.i, label %24, label %22

22:                                               ; preds = %1
  store i32 %18, ptr %19, align 4, !tbaa !58
  %23 = getelementptr inbounds nuw i8, ptr %19, i64 4
  store ptr %23, ptr getelementptr inbounds nuw (i8, ptr @_ZL19casadi_c_load_stack, i64 48), align 8, !tbaa !59
  br label %_ZNSt5dequeIiSaIiEE9push_backEOi.exit

24:                                               ; preds = %1
  call void @_ZNSt5dequeIiSaIiEE16_M_push_back_auxIJiEEEvDpOT_(ptr noundef nonnull align 8 dereferenceable(80) @_ZL19casadi_c_load_stack, ptr noundef nonnull align 4 dereferenceable(4) %2)
  br label %_ZNSt5dequeIiSaIiEE9push_backEOi.exit

_ZNSt5dequeIiSaIiEE9push_backEOi.exit:            ; preds = %22, %24
  call void @llvm.lifetime.end.p0(i64 4, ptr nonnull %2) #23
  ret i32 %10
}